target datalayout = "e-m:e-p270:32:32-p271:32:32-p272:64:64-i64:64-i128:128-f80:128-n8:16:32:64-S128"
target triple = "x86_64-pc-linux-gnu"

%"class.igl::opengl::glfw::Viewer" = type { i32, %"class.std::vector", i64, i32, ptr, %"class.std::vector.1", i64, i32, %"class.std::vector.6", [8 x i8], %"class.Eigen::Quaternion", i32, i32, i32, i32, float, %"class.Eigen::Matrix.13", i8, i8, float, %"class.std::function", %"class.std::function", %"class.std::function", %"class.std::function.23", %"class.std::function.23", %"class.std::function.23", %"class.std::function.25", %"class.std::function.27", %"class.std::function.23", %"class.std::function.27", %"class.std::function.27", ptr, ptr, ptr, ptr, ptr, ptr, ptr, ptr, ptr, ptr, [8 x i8] }
%"class.std::vector" = type { %"struct.std::_Vector_base" }
%"struct.std::_Vector_base" = type { %"struct.std::_Vector_base<igl::opengl::ViewerData, std::allocator<igl::opengl::ViewerData>>::_Vector_impl" }
%"struct.std::_Vector_base<igl::opengl::ViewerData, std::allocator<igl::opengl::ViewerData>>::_Vector_impl" = type { %"struct.std::_Vector_base<igl::opengl::ViewerData, std::allocator<igl::opengl::ViewerData>>::_Vector_impl_data" }
%"struct.std::_Vector_base<igl::opengl::ViewerData, std::allocator<igl::opengl::ViewerData>>::_Vector_impl_data" = type { ptr, ptr, ptr }
%"class.std::vector.1" = type { %"struct.std::_Vector_base.2" }
%"struct.std::_Vector_base.2" = type { %"struct.std::_Vector_base<igl::opengl::ViewerCore, std::allocator<igl::opengl::ViewerCore>>::_Vector_impl" }
%"struct.std::_Vector_base<igl::opengl::ViewerCore, std::allocator<igl::opengl::ViewerCore>>::_Vector_impl" = type { %"struct.std::_Vector_base<igl::opengl::ViewerCore, std::allocator<igl::opengl::ViewerCore>>::_Vector_impl_data" }
%"struct.std::_Vector_base<igl::opengl::ViewerCore, std::allocator<igl::opengl::ViewerCore>>::_Vector_impl_data" = type { ptr, ptr, ptr }
%"class.std::vector.6" = type { %"struct.std::_Vector_base.7" }
%"struct.std::_Vector_base.7" = type { %"struct.std::_Vector_base<igl::opengl::glfw::ViewerPlugin *, std::allocator<igl::opengl::glfw::ViewerPlugin *>>::_Vector_impl" }
%"struct.std::_Vector_base<igl::opengl::glfw::ViewerPlugin *, std::allocator<igl::opengl::glfw::ViewerPlugin *>>::_Vector_impl" = type { %"struct.std::_Vector_base<igl::opengl::glfw::ViewerPlugin *, std::allocator<igl::opengl::glfw::ViewerPlugin *>>::_Vector_impl_data" }
%"struct.std::_Vector_base<igl::opengl::glfw::ViewerPlugin *, std::allocator<igl::opengl::glfw::ViewerPlugin *>>::_Vector_impl_data" = type { ptr, ptr, ptr }
%"class.Eigen::Quaternion" = type { %"class.Eigen::Matrix" }
%"class.Eigen::Matrix" = type { %"class.Eigen::PlainObjectBase" }
%"class.Eigen::PlainObjectBase" = type { %"class.Eigen::DenseStorage" }
%"class.Eigen::DenseStorage" = type { %"struct.Eigen::internal::plain_array" }
%"struct.Eigen::internal::plain_array" = type { [4 x float] }
%"class.Eigen::Matrix.13" = type { %"class.Eigen::PlainObjectBase.14" }
%"class.Eigen::PlainObjectBase.14" = type { %"class.Eigen::DenseStorage.21" }
%"class.Eigen::DenseStorage.21" = type { %"struct.Eigen::internal::plain_array.22" }
%"struct.Eigen::internal::plain_array.22" = type { [3 x float] }
%"class.std::function" = type { %"class.std::_Function_base", ptr }
%"class.std::_Function_base" = type { %"union.std::_Any_data", ptr }
%"union.std::_Any_data" = type { %"union.std::_Nocopy_types" }
%"union.std::_Nocopy_types" = type { { i64, i64 } }
%"class.std::function.25" = type { %"class.std::_Function_base", ptr }
%"class.std::function.23" = type { %"class.std::_Function_base", ptr }
%"class.std::function.27" = type { %"class.std::_Function_base", ptr }
%"class.igl::opengl::ViewerData" = type { %"class.Eigen::Matrix.43", %"class.Eigen::Matrix.52", %"class.Eigen::Matrix.43", %"class.Eigen::Matrix.43", %"class.Eigen::Matrix.43", %"class.Eigen::Matrix.43", %"class.Eigen::Matrix.43", %"class.Eigen::Matrix.43", %"class.Eigen::Matrix.43", %"class.Eigen::Matrix.43", %"class.Eigen::Matrix.43", %"class.Eigen::Matrix.52", %"class.Eigen::Matrix.61", %"class.Eigen::Matrix.61", %"class.Eigen::Matrix.61", %"class.Eigen::Matrix.61", %"class.Eigen::Matrix.43", %"class.Eigen::Matrix.43", %"class.Eigen::Matrix.43", %"class.Eigen::Matrix.43", %"class.Eigen::Matrix.43", %"class.std::vector.70", %"class.std::vector.70", %"class.std::vector.70", i32, i8, i8, i8, i32, i32, i32, i32, i32, i32, i32, i32, i32, i32, float, float, float, %"class.Eigen::Matrix.75", %"class.Eigen::Matrix.75", float, i32, [4 x i8], %"class.igl::opengl::MeshGL" }
%"class.Eigen::Matrix.52" = type { %"class.Eigen::PlainObjectBase.53" }
%"class.Eigen::PlainObjectBase.53" = type { %"class.Eigen::DenseStorage.60" }
%"class.Eigen::DenseStorage.60" = type { ptr, i64, i64 }
%"class.Eigen::Matrix.61" = type { %"class.Eigen::PlainObjectBase.62" }
%"class.Eigen::PlainObjectBase.62" = type { %"class.Eigen::DenseStorage.69" }
%"class.Eigen::DenseStorage.69" = type { ptr, i64, i64 }
%"class.Eigen::Matrix.43" = type { %"class.Eigen::PlainObjectBase.44" }
%"class.Eigen::PlainObjectBase.44" = type { %"class.Eigen::DenseStorage.51" }
%"class.Eigen::DenseStorage.51" = type { ptr, i64, i64 }
%"class.std::vector.70" = type { %"struct.std::_Vector_base.71" }
%"struct.std::_Vector_base.71" = type { %"struct.std::_Vector_base<std::__cxx11::basic_string<char>, std::allocator<std::__cxx11::basic_string<char>>>::_Vector_impl" }
%"struct.std::_Vector_base<std::__cxx11::basic_string<char>, std::allocator<std::__cxx11::basic_string<char>>>::_Vector_impl" = type { %"struct.std::_Vector_base<std::__cxx11::basic_string<char>, std::allocator<std::__cxx11::basic_string<char>>>::_Vector_impl_data" }
%"struct.std::_Vector_base<std::__cxx11::basic_string<char>, std::allocator<std::__cxx11::basic_string<char>>>::_Vector_impl_data" = type { ptr, ptr, ptr }
%"class.Eigen::Matrix.75" = type { %"class.Eigen::PlainObjectBase.76" }
%"class.Eigen::PlainObjectBase.76" = type { %"class.Eigen::DenseStorage.83" }
%"class.Eigen::DenseStorage.83" = type { %"struct.Eigen::internal::plain_array.84" }
%"struct.Eigen::internal::plain_array.84" = type { [4 x float] }
%"class.igl::opengl::MeshGL" = type <{ i8, [3 x i8], i32, i32, i32, i32, i32, i32, i32, i32, i32, i32, i32, i32, i32, i32, i32, i32, i32, i32, i32, i32, i32, %"class.Eigen::Matrix.85", %"class.Eigen::Matrix.85", %"class.Eigen::Matrix.85", %"class.Eigen::Matrix.85", %"class.Eigen::Matrix.85", %"class.Eigen::Matrix.85", %"class.Eigen::Matrix.85", %"class.Eigen::Matrix.85", %"class.Eigen::Matrix.85", %"class.Eigen::Matrix.85", %"struct.igl::opengl::MeshGL::TextGL", %"struct.igl::opengl::MeshGL::TextGL", %"struct.igl::opengl::MeshGL::TextGL", i32, i32, i32, i32, i32, [4 x i8], %"class.Eigen::Matrix.103", %"class.Eigen::Matrix.94", %"class.Eigen::Matrix.94", %"class.Eigen::Matrix.94", i32, [4 x i8] }>
%"class.Eigen::Matrix.85" = type { %"class.Eigen::PlainObjectBase.86" }
%"class.Eigen::PlainObjectBase.86" = type { %"class.Eigen::DenseStorage.93" }
%"class.Eigen::DenseStorage.93" = type { ptr, i64, i64 }
%"struct.igl::opengl::MeshGL::TextGL" = type { i32, i32, i32, i32, i32, i32, %"class.Eigen::Matrix.85", %"class.Eigen::Matrix.85", %"class.Eigen::Matrix.85", %"class.Eigen::Matrix.94" }
%"class.Eigen::Matrix.103" = type { %"class.Eigen::PlainObjectBase.104" }
%"class.Eigen::PlainObjectBase.104" = type { %"class.Eigen::DenseStorage.111" }
%"class.Eigen::DenseStorage.111" = type { ptr, i64 }
%"class.Eigen::Matrix.94" = type { %"class.Eigen::PlainObjectBase.95" }
%"class.Eigen::PlainObjectBase.95" = type { %"class.Eigen::DenseStorage.102" }
%"class.Eigen::DenseStorage.102" = type { ptr, i64, i64 }

; Function Attrs: mustprogress nounwind uwtable
define linkonce_odr dso_local noundef i64 @_ZNKSt6vectorIN3igl6opengl10ViewerDataESaIS2_EE4sizeEv(ptr noundef nonnull align 8 dereferenceable(24) %0) #1 comdat align 2 {
  %2 = alloca ptr, align 8
  store ptr %0, ptr %2, align 8, !tbaa !74
  %3 = load ptr, ptr %2, align 8
  %4 = getelementptr inbounds nuw %"struct.std::_Vector_base", ptr %3, i32 0, i32 0
  %5 = getelementptr inbounds nuw %"struct.std::_Vector_base<igl::opengl::ViewerData, std::allocator<igl::opengl::ViewerData>>::_Vector_impl_data", ptr %4, i32 0, i32 1
  %6 = load ptr, ptr %5, align 8, !tbaa !214
  %7 = getelementptr inbounds nuw %"struct.std::_Vector_base", ptr %3, i32 0, i32 0
  %8 = getelementptr inbounds nuw %"struct.std::_Vector_base<igl::opengl::ViewerData, std::allocator<igl::opengl::ViewerData>>::_Vector_impl_data", ptr %7, i32 0, i32 0
  %9 = load ptr, ptr %8, align 8, !tbaa !213
  %10 = ptrtoint ptr %6 to i64
  %11 = ptrtoint ptr %9 to i64
  %12 = sub i64 %10, %11
  %13 = sdiv exact i64 %12, 1488
  ret i64 %13
}

; Function Attrs: mustprogress nounwind uwtable
define linkonce_odr dso_local noundef nonnull align 8 dereferenceable(1488) ptr @_ZNKSt6vectorIN3igl6opengl10ViewerDataESaIS2_EEixEm(ptr noundef nonnull align 8 dereferenceable(24) %0, i64 noundef %1) #1 comdat align 2 {
  %3 = alloca ptr, align 8
  %4 = alloca i64, align 8
  store ptr %0, ptr %3, align 8, !tbaa !74
  store i64 %1, ptr %4, align 8, !tbaa !130
  %5 = load ptr, ptr %3, align 8
  %6 = getelementptr inbounds nuw %"struct.std::_Vector_base", ptr %5, i32 0, i32 0
  %7 = getelementptr inbounds nuw %"struct.std::_Vector_base<igl::opengl::ViewerData, std::allocator<igl::opengl::ViewerData>>::_Vector_impl_data", ptr %6, i32 0, i32 0
  %8 = load ptr, ptr %7, align 8, !tbaa !213
  %9 = load i64, ptr %4, align 8, !tbaa !130
  %10 = getelementptr inbounds nuw %"class.igl::opengl::ViewerData", ptr %8, i64 %9
  ret ptr %10
}

; Function Attrs: mustprogress nounwind uwtable
define dso_local noundef i64 @_ZNK3igl6opengl4glfw6Viewer10mesh_indexEi(ptr noundef nonnull align 16 dereferenceable(616) %0, i32 noundef %1) #1 align 2 {
  %3 = alloca i64, align 8
  %4 = alloca ptr, align 8
  %5 = alloca i32, align 4
  %6 = alloca i64, align 8
  %7 = alloca i32, align 4
  store ptr %0, ptr %4, align 8, !tbaa !15
  store i32 %1, ptr %5, align 4, !tbaa !21
  %8 = load ptr, ptr %4, align 8
  call void @llvm.lifetime.start.p0(i64 8, ptr %6) #26
  store i64 0, ptr %6, align 8, !tbaa !130
  br label %9

9:                                                ; preds = %26, %2
  %10 = load i64, ptr %6, align 8, !tbaa !130
  %11 = getelementptr inbounds nuw %"class.igl::opengl::glfw::Viewer", ptr %8, i32 0, i32 1
  %12 = call noundef i64 @_ZNKSt6vectorIN3igl6opengl10ViewerDataESaIS2_EE4sizeEv(ptr noundef nonnull align 8 dereferenceable(24) %11) #26
  %13 = icmp ult i64 %10, %12
  br i1 %13, label %15, label %14

14:                                               ; preds = %9
  store i32 2, ptr %7, align 4
  br label %29

15:                                               ; preds = %9
  %16 = getelementptr inbounds nuw %"class.igl::opengl::glfw::Viewer", ptr %8, i32 0, i32 1
  %17 = load i64, ptr %6, align 8, !tbaa !130
  %18 = call noundef nonnull align 8 dereferenceable(1488) ptr @_ZNKSt6vectorIN3igl6opengl10ViewerDataESaIS2_EEixEm(ptr noundef nonnull align 8 dereferenceable(24) %16, i64 noundef %17) #26
  %19 = getelementptr inbounds nuw %"class.igl::opengl::ViewerData", ptr %18, i32 0, i32 44
  %20 = load i32, ptr %19, align 8, !tbaa !172
  %21 = load i32, ptr %5, align 4, !tbaa !21
  %22 = icmp eq i32 %20, %21
  br i1 %22, label %23, label %25

23:                                               ; preds = %15
  %24 = load i64, ptr %6, align 8, !tbaa !130
  store i64 %24, ptr %3, align 8
  store i32 1, ptr %7, align 4
  br label %29

25:                                               ; preds = %15
  br label %26

26:                                               ; preds = %25
  %27 = load i64, ptr %6, align 8, !tbaa !130
  %28 = add i64 %27, 1
  store i64 %28, ptr %6, align 8, !tbaa !130
  br label %9, !llvm.loop !291

29:                                               ; preds = %23, %14
  call void @llvm.lifetime.end.p0(i64 8, ptr %6) #26
  %30 = load i32, ptr %7, align 4
  switch i32 %30, label %34 [
    i32 2, label %31
    i32 1, label %32
  ]

31:                                               ; preds = %29
  store i64 0, ptr %3, align 8
  br label %32

32:                                               ; preds = %31, %29
  %33 = load i64, ptr %3, align 8
  ret i64 %33

34:                                               ; preds = %29
  unreachable
}

; Function Attrs: mustprogress uwtable
define dso_local noundef nonnull align 8 dereferenceable(1488) ptr @_ZNK3igl6opengl4glfw6Viewer4dataEi(ptr noundef nonnull align 16 dereferenceable(616) %0, i32 noundef %1) #3 align 2 {
  %3 = alloca ptr, align 8
  %4 = alloca i32, align 4
  %5 = alloca i32, align 4
  store ptr %0, ptr %3, align 8, !tbaa !15
  store i32 %1, ptr %4, align 4, !tbaa !21
  %6 = load ptr, ptr %3, align 8
  call void @llvm.lifetime.start.p0(i64 4, ptr %5) #26
  %7 = load i32, ptr %4, align 4, !tbaa !21
  %8 = icmp eq i32 %7, -1
  br i1 %8, label %9, label %13

9:                                                ; preds = %2
  %10 = getelementptr inbounds nuw %"class.igl::opengl::glfw::Viewer", ptr %6, i32 0, i32 2
  %11 = load i64, ptr %10, align 16, !tbaa !169
  %12 = trunc i64 %11 to i32
  store i32 %12, ptr %5, align 4, !tbaa !21
  br label %17

13:                                               ; preds = %2
  %14 = load i32, ptr %4, align 4, !tbaa !21
  %15 = call noundef i64 @_ZNK3igl6opengl4glfw6Viewer10mesh_indexEi(ptr noundef nonnull align 16 dereferenceable(616) %6, i32 noundef %14)
  %16 = trunc i64 %15 to i32
  store i32 %16, ptr %5, align 4, !tbaa !21
  br label %17

17:                                               ; preds = %13, %9
  %18 = getelementptr inbounds nuw %"class.igl::opengl::glfw::Viewer", ptr %6, i32 0, i32 1
  %19 = load i32, ptr %5, align 4, !tbaa !21
  %20 = sext i32 %19 to i64
  %21 = call noundef nonnull align 8 dereferenceable(1488) ptr @_ZNKSt6vectorIN3igl6opengl10ViewerDataESaIS2_EEixEm(ptr noundef nonnull align 8 dereferenceable(24) %18, i64 noundef %20) #26
  call void @llvm.lifetime.end.p0(i64 4, ptr %5) #26
  ret ptr %21
}